; Function Attrs: mustprogress uwtable
define internal noundef zeroext i1 @_ZN12_GLOBAL__N_113AttrmapRename5applyERN5Yosys5RTLIL8IdStringERNS2_5ConstE(ptr noundef nonnull align 8 dereferenceable(72) %0, ptr noundef nonnull align 4 dereferenceable(4) %1, ptr nocapture nonnull readnone align 8 %2) unnamed_addr #4 align 2 personality ptr @__gxx_personality_v0 {
  %4 = alloca %"class.std::__cxx11::basic_string", align 8
  %5 = getelementptr inbounds i8, ptr %0, i64 8
  %6 = tail call fastcc noundef zeroext i1 @_ZN12_GLOBAL__N_110match_nameERNSt7__cxx1112basic_stringIcSt11char_traitsIcESaIcEEERN5Yosys5RTLIL8IdStringEb(ptr noundef nonnull align 8 dereferenceable(32) %5, ptr noundef nonnull align 4 dereferenceable(4) %1, i1 noundef zeroext false)
  br i1 %6, label %7, label %21

7:                                                ; preds = %3
  %8 = getelementptr inbounds i8, ptr %0, i64 40
  %9 = tail call noundef i64 @_ZNKSt7__cxx1112basic_stringIcSt11char_traitsIcESaIcEE4sizeEv(ptr noundef nonnull align 8 dereferenceable(32) %8) #21, !noalias !61
  %.not.i = icmp eq i64 %9, 0
  br i1 %.not.i, label %17, label %10

10:                                               ; preds = %7
  %11 = tail call noundef nonnull align 1 dereferenceable(1) ptr @_ZNKSt7__cxx1112basic_stringIcSt11char_traitsIcESaIcEEixEm(ptr noundef nonnull align 8 dereferenceable(32) %8, i64 noundef 0) #21, !noalias !61
  %12 = load i8, ptr %11, align 1, !noalias !61
  %.not5.i = icmp eq i8 %12, 92
  br i1 %.not5.i, label %17, label %13

13:                                               ; preds = %10
  %14 = tail call noundef nonnull align 1 dereferenceable(1) ptr @_ZNKSt7__cxx1112basic_stringIcSt11char_traitsIcESaIcEEixEm(ptr noundef nonnull align 8 dereferenceable(32) %8, i64 noundef 0) #21, !noalias !61
  %15 = load i8, ptr %14, align 1, !noalias !61
  %.not6.i = icmp eq i8 %15, 36
  br i1 %.not6.i, label %17, label %16

16:                                               ; preds = %13
  call void @_ZStplIcSt11char_traitsIcESaIcEENSt7__cxx1112basic_stringIT_T0_T1_EEPKS5_RKS8_(ptr dead_on_unwind nonnull writable sret(%"class.std::__cxx11::basic_string") align 8 %4, ptr noundef nonnull @.str.38, ptr noundef nonnull align 8 dereferenceable(32) %8)
  br label %_ZN5Yosys5RTLILL9escape_idERKNSt7__cxx1112basic_stringIcSt11char_traitsIcESaIcEEE.exit

17:                                               ; preds = %13, %10, %7
  call void @_ZNSt7__cxx1112basic_stringIcSt11char_traitsIcESaIcEEC1ERKS4_(ptr noundef nonnull align 8 dereferenceable(32) %4, ptr noundef nonnull align 8 dereferenceable(32) %8)
  br label %_ZN5Yosys5RTLILL9escape_idERKNSt7__cxx1112basic_stringIcSt11char_traitsIcESaIcEEE.exit

_ZN5Yosys5RTLILL9escape_idERKNSt7__cxx1112basic_stringIcSt11char_traitsIcESaIcEEE.exit: ; preds = %16, %17
  invoke void @_ZN5Yosys5RTLIL8IdStringaSERKNSt7__cxx1112basic_stringIcSt11char_traitsIcESaIcEEE(ptr noundef nonnull align 4 dereferenceable(4) %1, ptr noundef nonnull align 8 dereferenceable(32) %4)
          to label %18 unwind label %19

18:                                               ; preds = %_ZN5Yosys5RTLILL9escape_idERKNSt7__cxx1112basic_stringIcSt11char_traitsIcESaIcEEE.exit
  call void @_ZNSt7__cxx1112basic_stringIcSt11char_traitsIcESaIcEED1Ev(ptr noundef nonnull align 8 dereferenceable(32) %4) #21
  br label %21

19:                                               ; preds = %_ZN5Yosys5RTLILL9escape_idERKNSt7__cxx1112basic_stringIcSt11char_traitsIcESaIcEEE.exit
  %20 = landingpad { ptr, i32 }
          cleanup
  call void @_ZNSt7__cxx1112basic_stringIcSt11char_traitsIcESaIcEED1Ev(ptr noundef nonnull align 8 dereferenceable(32) %4) #21
  resume { ptr, i32 } %20

21:                                               ; preds = %18, %3
  ret i1 true
}